; Function Attrs: mustprogress nounwind uwtable
define hidden void @_ZN15ReturnTypeEntry22clean_weak_klass_linksEb(ptr nocapture noundef nonnull readonly align 8 dereferenceable(12) %0, i1 noundef zeroext %1) local_unnamed_addr #2 align 2 {
  %3 = load ptr, ptr %0, align 8
  %4 = getelementptr inbounds i8, ptr %0, i64 8
  %5 = load i32, ptr %4, align 8
  %6 = getelementptr inbounds i8, ptr %3, i64 8
  %7 = load ptr, ptr %6, align 8
  %8 = getelementptr inbounds i8, ptr %7, i64 8
  %9 = sext i32 %5 to i64
  %10 = getelementptr inbounds [1 x i64], ptr %8, i64 0, i64 %9
  %11 = load i64, ptr %10, align 8
  %12 = and i64 %11, -4
  %13 = inttoptr i64 %12 to ptr
  %.not = icmp eq i64 %12, 0
  br i1 %.not, label %24, label %14

14:                                               ; preds = %2
  br i1 %1, label %19, label %15

15:                                               ; preds = %14
  %16 = getelementptr inbounds i8, ptr %13, i64 152
  %17 = load ptr, ptr %16, align 8
  %18 = tail call noundef zeroext i1 @_ZNK15ClassLoaderData8is_aliveEv(ptr noundef nonnull align 8 dereferenceable(160) %17) #20
  br i1 %18, label %24, label %._crit_edge

._crit_edge:                                      ; preds = %15
  %.pre = load ptr, ptr %0, align 8
  %.pre5 = load i32, ptr %4, align 8
  %.phi.trans.insert = getelementptr inbounds i8, ptr %.pre, i64 8
  %.pre6 = load ptr, ptr %.phi.trans.insert, align 8
  %.pre7 = sext i32 %.pre5 to i64
  br label %19

19:                                               ; preds = %._crit_edge, %14
  %.pre-phi = phi i64 [ %.pre7, %._crit_edge ], [ %9, %14 ]
  %20 = phi ptr [ %.pre6, %._crit_edge ], [ %7, %14 ]
  %21 = and i64 %11, 3
  %22 = getelementptr inbounds i8, ptr %20, i64 8
  %23 = getelementptr inbounds [1 x i64], ptr %22, i64 0, i64 %.pre-phi
  store i64 %21, ptr %23, align 8
  br label %24

24:                                               ; preds = %19, %15, %2
  ret void
}